target datalayout = "e-m:e-p270:32:32-p271:32:32-p272:64:64-i64:64-i128:128-f80:128-n8:16:32:64-S128"
target triple = "x86_64-pc-linux-gnu"

%struct.reassembly_table = type { ptr, ptr, ptr, ptr, ptr }
%struct.reassembly_table_functions = type { ptr, ptr, ptr, ptr, ptr, ptr }

@.str.588 = private unnamed_addr constant [15 x i8] c"MySQL Protocol\00", align 1
@.str.589 = private unnamed_addr constant [6 x i8] c"MySQL\00", align 1
@.str.590 = private unnamed_addr constant [6 x i8] c"mysql\00", align 1
@proto_mysql = internal global i32 0, align 4
@.str.591 = private unnamed_addr constant [18 x i8] c"desegment_buffers\00", align 1
@.str.592 = private unnamed_addr constant [56 x i8] c"Reassemble MySQL buffers spanning multiple TCP segments\00", align 1
@.str.593 = private unnamed_addr constant [211 x i8] c"Whether the MySQL dissector should reassemble MySQL buffers spanning multiple TCP segments. To use this option, you must also enable \22Allow subdissectors to reassemble TCP streams\22 in the TCP protocol settings.\00", align 1
@mysql_desegment = internal global i8 1, align 1
@.str.594 = private unnamed_addr constant [15 x i8] c"show_sql_query\00", align 1
@.str.595 = private unnamed_addr constant [37 x i8] c"Show SQL Query string in INFO column\00", align 1
@.str.596 = private unnamed_addr constant [84 x i8] c"Whether the MySQL dissector should display the SQL query string in the INFO column.\00", align 1
@mysql_showquery = internal global i8 0, align 1
@mysql_reassembly_table = internal global %struct.reassembly_table zeroinitializer, align 8
@addresses_ports_reassembly_table_functions = external constant %struct.reassembly_table_functions, align 8
@mysql_handle = internal global ptr null, align 8

; Function Attrs: null_pointer_is_valid sspstrong uwtable
define hidden void @proto_register_mysql() #0 {
  %1 = alloca ptr, align 8
  %2 = alloca ptr, align 8
  call void @llvm.lifetime.start.p0(i64 8, ptr %1) #11
  call void @llvm.lifetime.start.p0(i64 8, ptr %2) #11
  %3 = call i32 @proto_register_protocol(ptr noundef @.str.588, ptr noundef @.str.589, ptr noundef @.str.590)
  store i32 %3, ptr @proto_mysql, align 4
  %4 = load i32, ptr @proto_mysql, align 4
  call void @proto_register_field_array(i32 noundef %4, ptr noundef @proto_register_mysql.hf, i32 noundef 269)
  call void @proto_register_subtree_array(ptr noundef @proto_register_mysql.ett, i32 noundef 25)
  %5 = load i32, ptr @proto_mysql, align 4
  %6 = call ptr @expert_register_protocol(i32 noundef %5)
  store ptr %6, ptr %2, align 8
  %7 = load ptr, ptr %2, align 8
  call void @expert_register_field_array(ptr noundef %7, ptr noundef @proto_register_mysql.ei, i32 noundef 7)
  %8 = load i32, ptr @proto_mysql, align 4
  %9 = call ptr @prefs_register_protocol(i32 noundef %8, ptr noundef null)
  store ptr %9, ptr %1, align 8
  %10 = load ptr, ptr %1, align 8
  call void @prefs_register_bool_preference(ptr noundef %10, ptr noundef @.str.591, ptr noundef @.str.592, ptr noundef @.str.593, ptr noundef @mysql_desegment)
  %11 = load ptr, ptr %1, align 8
  call void @prefs_register_bool_preference(ptr noundef %11, ptr noundef @.str.594, ptr noundef @.str.595, ptr noundef @.str.596, ptr noundef @mysql_showquery)
  call void @reassembly_table_register(ptr noundef @mysql_reassembly_table, ptr noundef @addresses_ports_reassembly_table_functions)
  %12 = load i32, ptr @proto_mysql, align 4
  %13 = call ptr @register_dissector(ptr noundef @.str.590, ptr noundef @dissect_mysql, i32 noundef %12)
  store ptr %13, ptr @mysql_handle, align 8
  call void @llvm.lifetime.end.p0(i64 8, ptr %2) #11
  call void @llvm.lifetime.end.p0(i64 8, ptr %1) #11
  ret void
}