; Function Attrs: null_pointer_is_valid sspstrong uwtable
define hidden void @proto_register_mysql() local_unnamed_addr #0 {
  %1 = tail call i32 @proto_register_protocol(ptr noundef nonnull @.str.588, ptr noundef nonnull @.str.589, ptr noundef nonnull @.str.590)
  store i32 %1, ptr @proto_mysql, align 4
  tail call void @proto_register_field_array(i32 noundef %1, ptr noundef nonnull @proto_register_mysql.hf, i32 noundef 269)
  tail call void @proto_register_subtree_array(ptr noundef nonnull @proto_register_mysql.ett, i32 noundef 25)
  %2 = load i32, ptr @proto_mysql, align 4
  %3 = tail call ptr @expert_register_protocol(i32 noundef %2)
  tail call void @expert_register_field_array(ptr noundef %3, ptr noundef nonnull @proto_register_mysql.ei, i32 noundef 7)
  %4 = load i32, ptr @proto_mysql, align 4
  %5 = tail call ptr @prefs_register_protocol(i32 noundef %4, ptr noundef null)
  tail call void @prefs_register_bool_preference(ptr noundef %5, ptr noundef nonnull @.str.591, ptr noundef nonnull @.str.592, ptr noundef nonnull @.str.593, ptr noundef nonnull @mysql_desegment)
  tail call void @prefs_register_bool_preference(ptr noundef %5, ptr noundef nonnull @.str.594, ptr noundef nonnull @.str.595, ptr noundef nonnull @.str.596, ptr noundef nonnull @mysql_showquery)
  tail call void @reassembly_table_register(ptr noundef nonnull @mysql_reassembly_table, ptr noundef nonnull @addresses_ports_reassembly_table_functions)
  %6 = load i32, ptr @proto_mysql, align 4
  %7 = tail call ptr @register_dissector(ptr noundef nonnull @.str.590, ptr noundef nonnull @dissect_mysql, i32 noundef %6)
  store ptr %7, ptr @mysql_handle, align 8
  ret void
}